; Function Attrs: nounwind uwtable
define dso_local range(i32 -2147483648, 1) i32 @onig_set_callout_data_by_tag(ptr noundef %0, ptr noundef readonly captures(none) %1, ptr noundef %2, ptr noundef %3, i32 noundef %4, i32 noundef %5, ptr noundef readonly captures(none) %6) local_unnamed_addr #4 {
  %8 = tail call i32 @onig_get_callout_num_by_tag(ptr noundef %0, ptr noundef %2, ptr noundef %3) #30
  %9 = icmp slt i32 %8, 0
  br i1 %9, label %23, label %10

10:                                               ; preds = %7
  %11 = icmp eq i32 %8, 0
  br i1 %11, label %23, label %onig_set_callout_data.exit

onig_set_callout_data.exit:                       ; preds = %10
  %12 = getelementptr inbounds nuw i8, ptr %1, i64 56
  %13 = load ptr, ptr %12, align 8, !tbaa !41
  %14 = zext nneg i32 %8 to i64
  %15 = getelementptr %struct.CalloutData, ptr %13, i64 %14
  %16 = getelementptr i8, ptr %15, i64 -128
  %17 = getelementptr i8, ptr %15, i64 -120
  %18 = sext i32 %4 to i64
  %19 = getelementptr inbounds [5 x %struct.anon], ptr %17, i64 0, i64 %18
  store i32 %5, ptr %19, align 8, !tbaa !53
  %20 = getelementptr inbounds nuw i8, ptr %19, i64 8
  tail call void @llvm.memcpy.p0.p0.i64(ptr noundef nonnull align 8 dereferenceable(16) %20, ptr noundef nonnull readonly align 8 dereferenceable(16) %6, i64 16, i1 false), !tbaa.struct !55
  %21 = getelementptr inbounds nuw i8, ptr %1, i64 48
  %22 = load i32, ptr %21, align 8, !tbaa !40
  store i32 %22, ptr %16, align 8, !tbaa !53
  br label %23

23:                                               ; preds = %10, %7, %onig_set_callout_data.exit
  %.0 = phi i32 [ 0, %onig_set_callout_data.exit ], [ %8, %7 ], [ -231, %10 ]
  ret i32 %.0
}